; Function Attrs: nounwind uwtable
define void @tq_send_finish(ptr noundef %0, i32 noundef %1) local_unnamed_addr #0 {
  %3 = getelementptr inbounds nuw i8, ptr %0, i64 8
  %4 = load i32, ptr %3, align 8, !tbaa !15
  %5 = icmp ult i32 %1, %4
  br i1 %5, label %7, label %6

6:                                                ; preds = %2
  tail call void (ptr, i32, ptr, ...) @av_log(ptr noundef null, i32 noundef 0, ptr noundef nonnull @.str, ptr noundef nonnull @.str.1, ptr noundef nonnull @.str.2, i32 noundef 225) #5
  tail call void @abort() #6
  unreachable

7:                                                ; preds = %2
  %8 = getelementptr inbounds nuw i8, ptr %0, i64 32
  %9 = tail call i32 @pthread_mutex_lock(ptr noundef nonnull %8) #5
  %10 = load ptr, ptr %0, align 8, !tbaa !9
  %11 = zext i32 %1 to i64
  %12 = getelementptr inbounds nuw i32, ptr %10, i64 %11
  %13 = load i32, ptr %12, align 4, !tbaa !19
  %14 = or i32 %13, 1
  store i32 %14, ptr %12, align 4, !tbaa !19
  %15 = getelementptr inbounds nuw i8, ptr %0, i64 72
  %16 = tail call i32 @pthread_cond_broadcast(ptr noundef nonnull %15) #5
  %17 = tail call i32 @pthread_mutex_unlock(ptr noundef nonnull %8) #5
  ret void
}